; Function Attrs: mustprogress nofree norecurse nosync nounwind willreturn memory(argmem: read) uwtable
define dso_local noundef nonnull ptr @_ZNK4node4quic19StatelessResetTokencvPKhEv(ptr noundef nonnull readonly align 8 dereferenceable(32) %this) local_unnamed_addr #10 align 2 {
entry:
  %ptr_ = getelementptr inbounds i8, ptr %this, i64 8
  %0 = load ptr, ptr %ptr_, align 8
  %cmp.not = icmp eq ptr %0, null
  %buf_ = getelementptr inbounds i8, ptr %this, i64 16
  %cond = select i1 %cmp.not, ptr %buf_, ptr %0
  ret ptr %cond
}